; Function Attrs: mustprogress uwtable
define dso_local void @_ZN4Json23BuiltStyledStreamWriter23writeCommentBeforeValueERKNS_5ValueE(ptr noundef nonnull align 8 dereferenceable(228) %0, ptr noundef nonnull align 8 dereferenceable(40) %1) local_unnamed_addr #0 align 2 personality ptr @__gxx_personality_v0 {
  %3 = alloca %"class.std::__cxx11::basic_string", align 8
  %4 = getelementptr inbounds i8, ptr %0, i64 112
  %5 = load i32, ptr %4, align 8
  %6 = icmp eq i32 %5, 0
  br i1 %6, label %48, label %7

7:                                                ; preds = %2
  %8 = tail call noundef zeroext i1 @_ZNK4Json5Value10hasCommentENS_16CommentPlacementE(ptr noundef nonnull align 8 dereferenceable(40) %1, i32 noundef 0)
  br i1 %8, label %9, label %48

9:                                                ; preds = %7
  %10 = getelementptr inbounds i8, ptr %0, i64 216
  %11 = load i8, ptr %10, align 8
  %12 = and i8 %11, 2
  %.not = icmp eq i8 %12, 0
  br i1 %.not, label %13, label %_ZN4Json23BuiltStyledStreamWriter11writeIndentEv.exit

13:                                               ; preds = %9
  %14 = getelementptr inbounds i8, ptr %0, i64 80
  %15 = tail call noundef zeroext i1 @_ZNKSt7__cxx1112basic_stringIcSt11char_traitsIcESaIcEE5emptyEv(ptr noundef nonnull align 8 dereferenceable(32) %14) #19
  br i1 %15, label %_ZN4Json23BuiltStyledStreamWriter11writeIndentEv.exit, label %16

16:                                               ; preds = %13
  %17 = getelementptr inbounds i8, ptr %0, i64 8
  %18 = load ptr, ptr %17, align 8
  %19 = tail call noundef nonnull align 8 dereferenceable(8) ptr @_ZStlsISt11char_traitsIcEERSt13basic_ostreamIcT_ES5_c(ptr noundef nonnull align 8 dereferenceable(8) %18, i8 noundef signext 10)
  %20 = getelementptr inbounds i8, ptr %0, i64 40
  %21 = tail call noundef nonnull align 8 dereferenceable(8) ptr @_ZStlsIcSt11char_traitsIcESaIcEERSt13basic_ostreamIT_T0_ES7_RKNSt7__cxx1112basic_stringIS4_S5_T1_EE(ptr noundef nonnull align 8 dereferenceable(8) %19, ptr noundef nonnull align 8 dereferenceable(32) %20)
  br label %_ZN4Json23BuiltStyledStreamWriter11writeIndentEv.exit

_ZN4Json23BuiltStyledStreamWriter11writeIndentEv.exit: ; preds = %16, %13, %9
  call void @_ZNK4Json5Value10getCommentB5cxx11ENS_16CommentPlacementE(ptr dead_on_unwind nonnull writable sret(%"class.std::__cxx11::basic_string") align 8 %3, ptr noundef nonnull align 8 dereferenceable(40) %1, i32 noundef 0)
  %22 = call ptr @_ZNKSt7__cxx1112basic_stringIcSt11char_traitsIcESaIcEE5beginEv(ptr noundef nonnull align 8 dereferenceable(32) %3) #19
  %23 = call ptr @_ZNKSt7__cxx1112basic_stringIcSt11char_traitsIcESaIcEE3endEv(ptr noundef nonnull align 8 dereferenceable(32) %3) #19
  %.not1618 = icmp eq ptr %22, %23
  br i1 %.not1618, label %._crit_edge, label %.lr.ph

.lr.ph:                                           ; preds = %_ZN4Json23BuiltStyledStreamWriter11writeIndentEv.exit
  %24 = getelementptr inbounds i8, ptr %0, i64 8
  %25 = getelementptr inbounds i8, ptr %0, i64 40
  br label %26

26:                                               ; preds = %.lr.ph, %.critedge
  %.sroa.010.019 = phi ptr [ %22, %.lr.ph ], [ %44, %.critedge ]
  %27 = load ptr, ptr %24, align 8
  %28 = load i8, ptr %.sroa.010.019, align 1
  %29 = invoke noundef nonnull align 8 dereferenceable(8) ptr @_ZStlsISt11char_traitsIcEERSt13basic_ostreamIcT_ES5_c(ptr noundef nonnull align 8 dereferenceable(8) %27, i8 noundef signext %28)
          to label %30 unwind label %42

30:                                               ; preds = %26
  %31 = load i8, ptr %.sroa.010.019, align 1
  %32 = icmp eq i8 %31, 10
  br i1 %32, label %33, label %.critedge

33:                                               ; preds = %30
  %34 = getelementptr inbounds i8, ptr %.sroa.010.019, i64 1
  %35 = call ptr @_ZNKSt7__cxx1112basic_stringIcSt11char_traitsIcESaIcEE3endEv(ptr noundef nonnull align 8 dereferenceable(32) %3) #19
  %.not17 = icmp eq ptr %34, %35
  br i1 %.not17, label %.critedge, label %36

36:                                               ; preds = %33
  %37 = load i8, ptr %34, align 1
  %38 = icmp eq i8 %37, 47
  br i1 %38, label %39, label %.critedge

39:                                               ; preds = %36
  %40 = load ptr, ptr %24, align 8
  %41 = invoke noundef nonnull align 8 dereferenceable(8) ptr @_ZStlsIcSt11char_traitsIcESaIcEERSt13basic_ostreamIT_T0_ES7_RKNSt7__cxx1112basic_stringIS4_S5_T1_EE(ptr noundef nonnull align 8 dereferenceable(8) %40, ptr noundef nonnull align 8 dereferenceable(32) %25)
          to label %.critedge unwind label %42

42:                                               ; preds = %39, %26
  %43 = landingpad { ptr, i32 }
          cleanup
  call void @_ZNSt7__cxx1112basic_stringIcSt11char_traitsIcESaIcEED1Ev(ptr noundef nonnull align 8 dereferenceable(32) %3) #19
  resume { ptr, i32 } %43

.critedge:                                        ; preds = %30, %33, %39, %36
  %44 = getelementptr inbounds i8, ptr %.sroa.010.019, i64 1
  %45 = call ptr @_ZNKSt7__cxx1112basic_stringIcSt11char_traitsIcESaIcEE3endEv(ptr noundef nonnull align 8 dereferenceable(32) %3) #19
  %.not16 = icmp eq ptr %44, %45
  br i1 %.not16, label %._crit_edge, label %26, !llvm.loop !33

._crit_edge:                                      ; preds = %.critedge, %_ZN4Json23BuiltStyledStreamWriter11writeIndentEv.exit
  %46 = load i8, ptr %10, align 8
  %47 = and i8 %46, -3
  store i8 %47, ptr %10, align 8
  call void @_ZNSt7__cxx1112basic_stringIcSt11char_traitsIcESaIcEED1Ev(ptr noundef nonnull align 8 dereferenceable(32) %3) #19
  br label %48

48:                                               ; preds = %7, %2, %._crit_edge
  ret void
}